target datalayout = "e-m:e-p270:32:32-p271:32:32-p272:64:64-i64:64-i128:128-f80:128-n8:16:32:64-S128"
target triple = "x86_64-pc-linux-gnu"

%struct.AVCodecContext = type { ptr, i32, i32, ptr, i32, i32, ptr, ptr, ptr, i64, i32, i32, ptr, i32, %struct.AVRational, %struct.AVRational, %struct.AVRational, i32, i32, i32, i32, i32, %struct.AVRational, i32, i32, i32, i32, i32, i32, i32, i32, i32, i32, i32, ptr, ptr, i32, float, float, float, float, float, float, float, float, float, i32, i32, i32, i32, i32, i32, i32, i32, i32, i32, i32, i32, ptr, ptr, ptr, i32, i32, i32, i32, i32, i32, i32, i32, i32, i32, %struct.AVChannelLayout, i32, i32, i32, i32, i32, i32, i32, i32, ptr, i32, i32, i32, float, float, i32, i32, i32, i32, i32, ptr, i64, i64, float, float, i32, i32, ptr, ptr, i32, i32, i32, i32, i32, ptr, ptr, ptr, ptr, i32, i32, [8 x i64], i32, i32, i32, i32, i32, i32, i32, ptr, ptr, i32, i32, i32, i32, i32, i32, i32, i32, i32, i32, ptr, ptr, i32, i32, ptr, ptr, ptr, ptr, i32, i32, i64, i32, i32, i64, ptr, i64, ptr, i32, ptr, i32 }
%struct.AVRational = type { i32, i32 }
%struct.AVChannelLayout = type { i32, i32, %union.anon.0, ptr }
%union.anon.0 = type { i64 }
%struct.Escape130Context = type { ptr, ptr, ptr, ptr, ptr, ptr, ptr, ptr, ptr, [3 x i32] }

@.str.2 = private unnamed_addr constant [41 x i8] c"Dimensions should be a multiple of two.\0A\00", align 1
@.str.3 = private unnamed_addr constant [28 x i8] c"Could not allocate buffer.\0A\00", align 1

; Function Attrs: cold nounwind optsize uwtable
define internal i32 @escape130_decode_init(ptr noundef %0) #0 {
  %2 = alloca i32, align 4
  %3 = alloca ptr, align 8
  %4 = alloca ptr, align 8
  %5 = alloca i32, align 4
  store ptr %0, ptr %3, align 8, !tbaa !4
  call void @llvm.lifetime.start.p0(i64 8, ptr %4) #8
  %6 = load ptr, ptr %3, align 8, !tbaa !4
  %7 = getelementptr inbounds nuw %struct.AVCodecContext, ptr %6, i32 0, i32 6
  %8 = load ptr, ptr %7, align 8, !tbaa !9
  store ptr %8, ptr %4, align 8, !tbaa !29
  %9 = load ptr, ptr %3, align 8, !tbaa !4
  %10 = getelementptr inbounds nuw %struct.AVCodecContext, ptr %9, i32 0, i32 23
  store i32 0, ptr %10, align 8, !tbaa !31
  %11 = load ptr, ptr %3, align 8, !tbaa !4
  %12 = getelementptr inbounds nuw %struct.AVCodecContext, ptr %11, i32 0, i32 18
  %13 = load i32, ptr %12, align 8, !tbaa !32
  %14 = and i32 %13, 1
  %15 = icmp ne i32 %14, 0
  br i1 %15, label %22, label %16

16:                                               ; preds = %1
  %17 = load ptr, ptr %3, align 8, !tbaa !4
  %18 = getelementptr inbounds nuw %struct.AVCodecContext, ptr %17, i32 0, i32 19
  %19 = load i32, ptr %18, align 4, !tbaa !33
  %20 = and i32 %19, 1
  %21 = icmp ne i32 %20, 0
  br i1 %21, label %22, label %24

22:                                               ; preds = %16, %1
  %23 = load ptr, ptr %3, align 8, !tbaa !4
  call void (ptr, i32, ptr, ...) @av_log(ptr noundef %23, i32 noundef 16, ptr noundef @.str.2)
  store i32 -1094995529, ptr %2, align 4
  store i32 1, ptr %5, align 4
  br label %199

24:                                               ; preds = %16
  %25 = load ptr, ptr %3, align 8, !tbaa !4
  %26 = getelementptr inbounds nuw %struct.AVCodecContext, ptr %25, i32 0, i32 18
  %27 = load i32, ptr %26, align 8, !tbaa !32
  %28 = load ptr, ptr %3, align 8, !tbaa !4
  %29 = getelementptr inbounds nuw %struct.AVCodecContext, ptr %28, i32 0, i32 19
  %30 = load i32, ptr %29, align 4, !tbaa !33
  %31 = mul nsw i32 %27, %30
  %32 = sdiv i32 %31, 4
  %33 = sext i32 %32 to i64
  %34 = call noalias ptr @av_malloc(i64 noundef %33)
  %35 = load ptr, ptr %4, align 8, !tbaa !29
  %36 = getelementptr inbounds nuw %struct.Escape130Context, ptr %35, i32 0, i32 0
  store ptr %34, ptr %36, align 8, !tbaa !34
  %37 = load ptr, ptr %3, align 8, !tbaa !4
  %38 = getelementptr inbounds nuw %struct.AVCodecContext, ptr %37, i32 0, i32 18
  %39 = load i32, ptr %38, align 8, !tbaa !32
  %40 = load ptr, ptr %3, align 8, !tbaa !4
  %41 = getelementptr inbounds nuw %struct.AVCodecContext, ptr %40, i32 0, i32 19
  %42 = load i32, ptr %41, align 4, !tbaa !33
  %43 = mul nsw i32 %39, %42
  %44 = mul nsw i32 %43, 3
  %45 = sdiv i32 %44, 2
  %46 = sext i32 %45 to i64
  %47 = call noalias ptr @av_malloc(i64 noundef %46)
  %48 = load ptr, ptr %4, align 8, !tbaa !29
  %49 = getelementptr inbounds nuw %struct.Escape130Context, ptr %48, i32 0, i32 7
  store ptr %47, ptr %49, align 8, !tbaa !36
  %50 = load ptr, ptr %3, align 8, !tbaa !4
  %51 = getelementptr inbounds nuw %struct.AVCodecContext, ptr %50, i32 0, i32 18
  %52 = load i32, ptr %51, align 8, !tbaa !32
  %53 = load ptr, ptr %3, align 8, !tbaa !4
  %54 = getelementptr inbounds nuw %struct.AVCodecContext, ptr %53, i32 0, i32 19
  %55 = load i32, ptr %54, align 4, !tbaa !33
  %56 = mul nsw i32 %52, %55
  %57 = mul nsw i32 %56, 3
  %58 = sdiv i32 %57, 2
  %59 = sext i32 %58 to i64
  %60 = call noalias ptr @av_malloc(i64 noundef %59)
  %61 = load ptr, ptr %4, align 8, !tbaa !29
  %62 = getelementptr inbounds nuw %struct.Escape130Context, ptr %61, i32 0, i32 8
  store ptr %60, ptr %62, align 8, !tbaa !37
  %63 = load ptr, ptr %4, align 8, !tbaa !29
  %64 = getelementptr inbounds nuw %struct.Escape130Context, ptr %63, i32 0, i32 0
  %65 = load ptr, ptr %64, align 8, !tbaa !34
  %66 = icmp ne ptr %65, null
  br i1 %66, label %67, label %77

67:                                               ; preds = %24
  %68 = load ptr, ptr %4, align 8, !tbaa !29
  %69 = getelementptr inbounds nuw %struct.Escape130Context, ptr %68, i32 0, i32 7
  %70 = load ptr, ptr %69, align 8, !tbaa !36
  %71 = icmp ne ptr %70, null
  br i1 %71, label %72, label %77

72:                                               ; preds = %67
  %73 = load ptr, ptr %4, align 8, !tbaa !29
  %74 = getelementptr inbounds nuw %struct.Escape130Context, ptr %73, i32 0, i32 8
  %75 = load ptr, ptr %74, align 8, !tbaa !37
  %76 = icmp ne ptr %75, null
  br i1 %76, label %79, label %77

77:                                               ; preds = %72, %67, %24
  %78 = load ptr, ptr %3, align 8, !tbaa !4
  call void (ptr, i32, ptr, ...) @av_log(ptr noundef %78, i32 noundef 16, ptr noundef @.str.3)
  store i32 -12, ptr %2, align 4
  store i32 1, ptr %5, align 4
  br label %199

79:                                               ; preds = %72
  %80 = load ptr, ptr %3, align 8, !tbaa !4
  %81 = getelementptr inbounds nuw %struct.AVCodecContext, ptr %80, i32 0, i32 18
  %82 = load i32, ptr %81, align 8, !tbaa !32
  %83 = load ptr, ptr %4, align 8, !tbaa !29
  %84 = getelementptr inbounds nuw %struct.Escape130Context, ptr %83, i32 0, i32 9
  %85 = getelementptr inbounds [3 x i32], ptr %84, i64 0, i64 0
  store i32 %82, ptr %85, align 8, !tbaa !38
  %86 = load ptr, ptr %3, align 8, !tbaa !4
  %87 = getelementptr inbounds nuw %struct.AVCodecContext, ptr %86, i32 0, i32 18
  %88 = load i32, ptr %87, align 8, !tbaa !32
  %89 = sdiv i32 %88, 2
  %90 = load ptr, ptr %4, align 8, !tbaa !29
  %91 = getelementptr inbounds nuw %struct.Escape130Context, ptr %90, i32 0, i32 9
  %92 = getelementptr inbounds [3 x i32], ptr %91, i64 0, i64 2
  store i32 %89, ptr %92, align 8, !tbaa !38
  %93 = load ptr, ptr %4, align 8, !tbaa !29
  %94 = getelementptr inbounds nuw %struct.Escape130Context, ptr %93, i32 0, i32 9
  %95 = getelementptr inbounds [3 x i32], ptr %94, i64 0, i64 1
  store i32 %89, ptr %95, align 4, !tbaa !38
  %96 = load ptr, ptr %4, align 8, !tbaa !29
  %97 = getelementptr inbounds nuw %struct.Escape130Context, ptr %96, i32 0, i32 7
  %98 = load ptr, ptr %97, align 8, !tbaa !36
  %99 = load ptr, ptr %4, align 8, !tbaa !29
  %100 = getelementptr inbounds nuw %struct.Escape130Context, ptr %99, i32 0, i32 1
  store ptr %98, ptr %100, align 8, !tbaa !39
  %101 = load ptr, ptr %4, align 8, !tbaa !29
  %102 = getelementptr inbounds nuw %struct.Escape130Context, ptr %101, i32 0, i32 1
  %103 = load ptr, ptr %102, align 8, !tbaa !39
  %104 = load ptr, ptr %3, align 8, !tbaa !4
  %105 = getelementptr inbounds nuw %struct.AVCodecContext, ptr %104, i32 0, i32 18
  %106 = load i32, ptr %105, align 8, !tbaa !32
  %107 = load ptr, ptr %3, align 8, !tbaa !4
  %108 = getelementptr inbounds nuw %struct.AVCodecContext, ptr %107, i32 0, i32 19
  %109 = load i32, ptr %108, align 4, !tbaa !33
  %110 = mul nsw i32 %106, %109
  %111 = sext i32 %110 to i64
  %112 = getelementptr inbounds i8, ptr %103, i64 %111
  %113 = load ptr, ptr %4, align 8, !tbaa !29
  %114 = getelementptr inbounds nuw %struct.Escape130Context, ptr %113, i32 0, i32 3
  store ptr %112, ptr %114, align 8, !tbaa !40
  %115 = load ptr, ptr %4, align 8, !tbaa !29
  %116 = getelementptr inbounds nuw %struct.Escape130Context, ptr %115, i32 0, i32 3
  %117 = load ptr, ptr %116, align 8, !tbaa !40
  %118 = load ptr, ptr %3, align 8, !tbaa !4
  %119 = getelementptr inbounds nuw %struct.AVCodecContext, ptr %118, i32 0, i32 18
  %120 = load i32, ptr %119, align 8, !tbaa !32
  %121 = load ptr, ptr %3, align 8, !tbaa !4
  %122 = getelementptr inbounds nuw %struct.AVCodecContext, ptr %121, i32 0, i32 19
  %123 = load i32, ptr %122, align 4, !tbaa !33
  %124 = mul nsw i32 %120, %123
  %125 = sdiv i32 %124, 4
  %126 = sext i32 %125 to i64
  %127 = getelementptr inbounds i8, ptr %117, i64 %126
  %128 = load ptr, ptr %4, align 8, !tbaa !29
  %129 = getelementptr inbounds nuw %struct.Escape130Context, ptr %128, i32 0, i32 5
  store ptr %127, ptr %129, align 8, !tbaa !41
  %130 = load ptr, ptr %4, align 8, !tbaa !29
  %131 = getelementptr inbounds nuw %struct.Escape130Context, ptr %130, i32 0, i32 8
  %132 = load ptr, ptr %131, align 8, !tbaa !37
  %133 = load ptr, ptr %4, align 8, !tbaa !29
  %134 = getelementptr inbounds nuw %struct.Escape130Context, ptr %133, i32 0, i32 2
  store ptr %132, ptr %134, align 8, !tbaa !42
  %135 = load ptr, ptr %4, align 8, !tbaa !29
  %136 = getelementptr inbounds nuw %struct.Escape130Context, ptr %135, i32 0, i32 2
  %137 = load ptr, ptr %136, align 8, !tbaa !42
  %138 = load ptr, ptr %3, align 8, !tbaa !4
  %139 = getelementptr inbounds nuw %struct.AVCodecContext, ptr %138, i32 0, i32 18
  %140 = load i32, ptr %139, align 8, !tbaa !32
  %141 = load ptr, ptr %3, align 8, !tbaa !4
  %142 = getelementptr inbounds nuw %struct.AVCodecContext, ptr %141, i32 0, i32 19
  %143 = load i32, ptr %142, align 4, !tbaa !33
  %144 = mul nsw i32 %140, %143
  %145 = sext i32 %144 to i64
  %146 = getelementptr inbounds i8, ptr %137, i64 %145
  %147 = load ptr, ptr %4, align 8, !tbaa !29
  %148 = getelementptr inbounds nuw %struct.Escape130Context, ptr %147, i32 0, i32 4
  store ptr %146, ptr %148, align 8, !tbaa !43
  %149 = load ptr, ptr %4, align 8, !tbaa !29
  %150 = getelementptr inbounds nuw %struct.Escape130Context, ptr %149, i32 0, i32 4
  %151 = load ptr, ptr %150, align 8, !tbaa !43
  %152 = load ptr, ptr %3, align 8, !tbaa !4
  %153 = getelementptr inbounds nuw %struct.AVCodecContext, ptr %152, i32 0, i32 18
  %154 = load i32, ptr %153, align 8, !tbaa !32
  %155 = load ptr, ptr %3, align 8, !tbaa !4
  %156 = getelementptr inbounds nuw %struct.AVCodecContext, ptr %155, i32 0, i32 19
  %157 = load i32, ptr %156, align 4, !tbaa !33
  %158 = mul nsw i32 %154, %157
  %159 = sdiv i32 %158, 4
  %160 = sext i32 %159 to i64
  %161 = getelementptr inbounds i8, ptr %151, i64 %160
  %162 = load ptr, ptr %4, align 8, !tbaa !29
  %163 = getelementptr inbounds nuw %struct.Escape130Context, ptr %162, i32 0, i32 6
  store ptr %161, ptr %163, align 8, !tbaa !44
  %164 = load ptr, ptr %4, align 8, !tbaa !29
  %165 = getelementptr inbounds nuw %struct.Escape130Context, ptr %164, i32 0, i32 2
  %166 = load ptr, ptr %165, align 8, !tbaa !42
  %167 = load ptr, ptr %3, align 8, !tbaa !4
  %168 = getelementptr inbounds nuw %struct.AVCodecContext, ptr %167, i32 0, i32 18
  %169 = load i32, ptr %168, align 8, !tbaa !32
  %170 = load ptr, ptr %3, align 8, !tbaa !4
  %171 = getelementptr inbounds nuw %struct.AVCodecContext, ptr %170, i32 0, i32 19
  %172 = load i32, ptr %171, align 4, !tbaa !33
  %173 = mul nsw i32 %169, %172
  %174 = sext i32 %173 to i64
  call void @llvm.memset.p0.i64(ptr align 1 %166, i8 0, i64 %174, i1 false)
  %175 = load ptr, ptr %4, align 8, !tbaa !29
  %176 = getelementptr inbounds nuw %struct.Escape130Context, ptr %175, i32 0, i32 4
  %177 = load ptr, ptr %176, align 8, !tbaa !43
  %178 = load ptr, ptr %3, align 8, !tbaa !4
  %179 = getelementptr inbounds nuw %struct.AVCodecContext, ptr %178, i32 0, i32 18
  %180 = load i32, ptr %179, align 8, !tbaa !32
  %181 = load ptr, ptr %3, align 8, !tbaa !4
  %182 = getelementptr inbounds nuw %struct.AVCodecContext, ptr %181, i32 0, i32 19
  %183 = load i32, ptr %182, align 4, !tbaa !33
  %184 = mul nsw i32 %180, %183
  %185 = sdiv i32 %184, 4
  %186 = sext i32 %185 to i64
  call void @llvm.memset.p0.i64(ptr align 1 %177, i8 16, i64 %186, i1 false)
  %187 = load ptr, ptr %4, align 8, !tbaa !29
  %188 = getelementptr inbounds nuw %struct.Escape130Context, ptr %187, i32 0, i32 6
  %189 = load ptr, ptr %188, align 8, !tbaa !44
  %190 = load ptr, ptr %3, align 8, !tbaa !4
  %191 = getelementptr inbounds nuw %struct.AVCodecContext, ptr %190, i32 0, i32 18
  %192 = load i32, ptr %191, align 8, !tbaa !32
  %193 = load ptr, ptr %3, align 8, !tbaa !4
  %194 = getelementptr inbounds nuw %struct.AVCodecContext, ptr %193, i32 0, i32 19
  %195 = load i32, ptr %194, align 4, !tbaa !33
  %196 = mul nsw i32 %192, %195
  %197 = sdiv i32 %196, 4
  %198 = sext i32 %197 to i64
  call void @llvm.memset.p0.i64(ptr align 1 %189, i8 16, i64 %198, i1 false)
  store i32 0, ptr %2, align 4
  store i32 1, ptr %5, align 4
  br label %199

199:                                              ; preds = %79, %77, %22
  call void @llvm.lifetime.end.p0(i64 8, ptr %4) #8
  %200 = load i32, ptr %2, align 4
  ret i32 %200
}