; Function Attrs: cold nounwind optsize uwtable
define internal range(i32 -1094995529, 1) i32 @escape130_decode_init(ptr noundef initializes((136, 140)) %0) #0 {
  %2 = getelementptr inbounds nuw i8, ptr %0, i64 32
  %3 = load ptr, ptr %2, align 8, !tbaa !4
  %4 = getelementptr inbounds nuw i8, ptr %0, i64 136
  store i32 0, ptr %4, align 8, !tbaa !27
  %5 = getelementptr inbounds nuw i8, ptr %0, i64 112
  %6 = load i32, ptr %5, align 8, !tbaa !28
  %7 = and i32 %6, 1
  %.not = icmp eq i32 %7, 0
  br i1 %.not, label %8, label %12

8:                                                ; preds = %1
  %9 = getelementptr inbounds nuw i8, ptr %0, i64 116
  %10 = load i32, ptr %9, align 4, !tbaa !29
  %11 = and i32 %10, 1
  %.not52 = icmp eq i32 %11, 0
  br i1 %.not52, label %13, label %12

12:                                               ; preds = %8, %1
  tail call void (ptr, i32, ptr, ...) @av_log(ptr noundef nonnull %0, i32 noundef 16, ptr noundef nonnull @.str.2) #6
  br label %60

13:                                               ; preds = %8
  %14 = mul nsw i32 %10, %6
  %15 = ashr exact i32 %14, 2
  %16 = sext i32 %15 to i64
  %17 = tail call noalias ptr @av_malloc(i64 noundef %16) #6
  store ptr %17, ptr %3, align 8, !tbaa !30
  %18 = load i32, ptr %5, align 8, !tbaa !28
  %19 = load i32, ptr %9, align 4, !tbaa !29
  %20 = mul i32 %18, 3
  %21 = mul i32 %20, %19
  %22 = sdiv i32 %21, 2
  %23 = sext i32 %22 to i64
  %24 = tail call noalias ptr @av_malloc(i64 noundef %23) #6
  %25 = getelementptr inbounds nuw i8, ptr %3, i64 56
  store ptr %24, ptr %25, align 8, !tbaa !32
  %26 = load i32, ptr %5, align 8, !tbaa !28
  %27 = load i32, ptr %9, align 4, !tbaa !29
  %28 = mul i32 %26, 3
  %29 = mul i32 %28, %27
  %30 = sdiv i32 %29, 2
  %31 = sext i32 %30 to i64
  %32 = tail call noalias ptr @av_malloc(i64 noundef %31) #6
  %33 = getelementptr inbounds nuw i8, ptr %3, i64 64
  store ptr %32, ptr %33, align 8, !tbaa !33
  %34 = load ptr, ptr %3, align 8, !tbaa !30
  %.not53 = icmp eq ptr %34, null
  br i1 %.not53, label %37, label %35

35:                                               ; preds = %13
  %36 = load ptr, ptr %25, align 8, !tbaa !32
  %.not54 = icmp eq ptr %36, null
  %.not55 = icmp eq ptr %32, null
  %or.cond = select i1 %.not54, i1 true, i1 %.not55
  br i1 %or.cond, label %37, label %38

37:                                               ; preds = %35, %13
  tail call void (ptr, i32, ptr, ...) @av_log(ptr noundef nonnull %0, i32 noundef 16, ptr noundef nonnull @.str.3) #6
  br label %60

38:                                               ; preds = %35
  %39 = load i32, ptr %5, align 8, !tbaa !28
  %40 = getelementptr inbounds nuw i8, ptr %3, i64 72
  store i32 %39, ptr %40, align 8, !tbaa !34
  %41 = sdiv i32 %39, 2
  %42 = getelementptr inbounds nuw i8, ptr %3, i64 80
  store i32 %41, ptr %42, align 8, !tbaa !34
  %43 = getelementptr inbounds nuw i8, ptr %3, i64 76
  store i32 %41, ptr %43, align 4, !tbaa !34
  %44 = getelementptr inbounds nuw i8, ptr %3, i64 8
  store ptr %36, ptr %44, align 8, !tbaa !35
  %45 = load i32, ptr %5, align 8, !tbaa !28
  %46 = load i32, ptr %9, align 4, !tbaa !29
  %47 = mul nsw i32 %46, %45
  %48 = sext i32 %47 to i64
  %49 = getelementptr inbounds i8, ptr %36, i64 %48
  %50 = getelementptr inbounds nuw i8, ptr %3, i64 24
  store ptr %49, ptr %50, align 8, !tbaa !36
  %51 = sdiv i32 %47, 4
  %52 = sext i32 %51 to i64
  %53 = getelementptr inbounds i8, ptr %49, i64 %52
  %54 = getelementptr inbounds nuw i8, ptr %3, i64 40
  store ptr %53, ptr %54, align 8, !tbaa !37
  %55 = getelementptr inbounds nuw i8, ptr %3, i64 16
  store ptr %32, ptr %55, align 8, !tbaa !38
  %56 = getelementptr inbounds i8, ptr %32, i64 %48
  %57 = getelementptr inbounds nuw i8, ptr %3, i64 32
  store ptr %56, ptr %57, align 8, !tbaa !39
  %58 = getelementptr inbounds i8, ptr %56, i64 %52
  %59 = getelementptr inbounds nuw i8, ptr %3, i64 48
  store ptr %58, ptr %59, align 8, !tbaa !40
  tail call void @llvm.memset.p0.i64(ptr nonnull align 1 %32, i8 0, i64 %48, i1 false)
  tail call void @llvm.memset.p0.i64(ptr align 1 %56, i8 16, i64 %52, i1 false)
  tail call void @llvm.memset.p0.i64(ptr align 1 %58, i8 16, i64 %52, i1 false)
  br label %60

60:                                               ; preds = %38, %37, %12
  %.0 = phi i32 [ -1094995529, %12 ], [ 0, %38 ], [ -12, %37 ]
  ret i32 %.0
}